Certificate:
    Data:
        Version: 3 (0x2)
        Serial Number: 46 (0x2e)
        Signature Algorithm: sha256WithRSAEncryption
        Issuer: C=US, O=Google, OU=Enterprise, CN=Single Root CA
        Validity
            Not Before: Nov 17 12:17:20 2024 GMT
            Not After : Nov 17 12:17:20 2034 GMT
        Subject: C=US, O=Google, OU=Enterprise, CN=httpbin.org
        Subject Public Key Info:
            Public Key Algorithm: rsaEncryption
                Public-Key: (2048 bit)
                Modulus:
                    00:a6:95:81:de:6e:97:17:6e:fb:27:6b:7c:d2:06:
                    a6:1e:83:eb:e5:18:75:d7:b0:01:07:36:1d:b0:11:
                    d3:90:d7:f1:77:68:d8:f7:b5:34:d5:40:e4:70:21:
                    a5:9a:67:85:ac:b6:8c:05:7d:3c:3f:e9:1c:10:e4:
                    bd:94:29:1d:7d:27:c4:a0:92:5d:f7:bb:b4:e2:6d:
                    c0:7f:e0:46:b5:61:33:b3:f3:5d:3a:80:ae:8e:3a:
                    88:1e:09:bc:cc:b4:43:87:14:52:2e:2b:60:08:04:
                    12:23:06:1f:f0:c2:75:ff:d3:56:6c:e3:3d:c3:e7:
                    ee:8b:df:47:2d:e8:6c:a3:21:d8:04:05:a7:2a:ed:
                    a2:3a:36:b6:ce:24:d3:15:cf:ff:e1:25:40:6e:67:
                    c8:cc:2f:22:00:87:ce:7a:0b:18:c2:ac:f4:12:9f:
                    c8:10:ea:6c:86:23:dc:65:95:f6:18:7a:1a:b8:33:
                    b2:ee:71:4e:eb:8a:28:23:7b:e4:8f:4a:18:58:15:
                    46:b4:7a:b4:cc:dc:71:1b:2f:3d:d1:1d:7c:3b:b0:
                    7b:b4:b0:51:cb:a8:5c:c0:6b:80:65:2f:3f:01:93:
                    6d:5f:b0:0f:82:c8:ef:63:9f:ff:60:e8:d8:6d:51:
                    81:2d:bb:18:73:f8:7e:61:75:67:07:a7:43:f8:87:
                    12:31
                Exponent: 65537 (0x10001)
        X509v3 extensions:
            X509v3 Key Usage: critical
                Digital Signature
            X509v3 Basic Constraints: 
                CA:FALSE
            X509v3 Extended Key Usage: 
                TLS Web Server Authentication
            X509v3 Subject Key Identifier: 
                DF:F9:3C:DC:25:48:11:1A:63:6B:39:D2:4D:E2:10:59:3A:BC:73:0B
            X509v3 Authority Key Identifier: 
                EC:F0:EA:53:53:3F:9F:23:DC:C1:0E:31:10:37:07:DE:DE:E7:6E:F3
            Authority Information Access: 
                CA Issuers - URI:http://pki.esodemoapp2.com/ca/root-ca.cer
            X509v3 CRL Distribution Points: 
                Full Name:
                  URI:http://pki.esodemoapp2.com/ca/root-ca.crl
            X509v3 Subject Alternative Name: 
                DNS:httpbin.org
    Signature Algorithm: sha256WithRSAEncryption
    Signature Value:
        1a:ba:c8:ad:44:8c:77:20:a4:ce:eb:14:07:52:86:31:df:1a:
        bf:e4:48:c2:c2:10:dc:4d:0d:d9:6b:85:2e:ad:b9:f3:bd:f3:
        f8:17:93:b9:47:2f:bf:43:72:6b:30:c5:63:2a:5c:d8:7a:7f:
        14:05:27:aa:26:ed:9b:7a:0e:63:00:e4:4f:9e:58:82:df:4e:
        a5:72:20:3c:df:a7:50:3f:cd:f9:54:7b:ed:b2:e4:0f:82:cd:
        c1:ff:25:9b:5b:b5:7f:6b:a4:77:8e:ac:6d:b7:86:63:07:c0:
        0e:e4:21:4a:f6:c1:30:3c:eb:0f:c5:95:08:2e:4e:2b:34:13:
        d2:d7:fc:b5:a2:b7:96:7f:6c:51:e7:24:04:63:c3:b9:e0:58:
        6a:ad:dc:e0:2f:a4:1a:45:ba:87:7e:be:67:b1:72:17:0d:ae:
        be:08:1c:b9:23:e3:4d:44:05:f3:48:fe:0c:8d:2b:5c:92:23:
        8d:2e:31:8f:af:eb:7c:70:53:36:f6:aa:e3:33:c3:cc:61:90:
        8b:f4:47:ff:fe:fb:c6:1b:ce:25:ca:61:e8:c9:a8:e3:94:ef:
        84:11:4f:b7:0e:bf:d3:87:7f:3f:bc:80:9d:ad:75:af:e9:95:
        06:22:c3:c3:81:4a:1f:46:b6:69:50:79:a6:3d:d7:85:d7:cd:
        03:94:69:4e
-----BEGIN CERTIFICATE-----
MIIEITCCAwmgAwIBAgIBLjANBgkqhkiG9w0BAQsFADBMMQswCQYDVQQGEwJVUzEP
MA0GA1UECgwGR29vZ2xlMRMwEQYDVQQLDApFbnRlcnByaXNlMRcwFQYDVQQDDA5T
aW5nbGUgUm9vdCBDQTAeFw0yNDExMTcxMjE3MjBaFw0zNDExMTcxMjE3MjBaMEkx
CzAJBgNVBAYTAlVTMQ8wDQYDVQQKDAZHb29nbGUxEzARBgNVBAsMCkVudGVycHJp
c2UxFDASBgNVBAMMC2h0dHBiaW4ub3JnMIIBIjANBgkqhkiG9w0BAQEFAAOCAQ8A
MIIBCgKCAQEAppWB3m6XF277J2t80gamHoPr5Rh117ABBzYdsBHTkNfxd2jY97U0
1UDkcCGlmmeFrLaMBX08P+kcEOS9lCkdfSfEoJJd97u04m3Af+BGtWEzs/NdOoCu
jjqIHgm8zLRDhxRSLitgCAQSIwYf8MJ1/9NWbOM9w+fui99HLehsoyHYBAWnKu2i
Oja2ziTTFc//4SVAbmfIzC8iAIfOegsYwqz0Ep/IEOpshiPcZZX2GHoauDOy7nFO
64ooI3vkj0oYWBVGtHq0zNxxGy890R18O7B7tLBRy6hcwGuAZS8/AZNtX7APgsjv
Y5//YOjYbVGBLbsYc/h+YXVnB6dD+IcSMQIDAQABo4IBDzCCAQswDgYDVR0PAQH/
BAQDAgeAMAkGA1UdEwQCMAAwEwYDVR0lBAwwCgYIKwYBBQUHAwEwHQYDVR0OBBYE
FN/5PNwlSBEaY2s50k3iEFk6vHMLMB8GA1UdIwQYMBaAFOzw6lNTP58j3MEOMRA3
B97e527zMEUGCCsGAQUFBwEBBDkwNzA1BggrBgEFBQcwAoYpaHR0cDovL3BraS5l
c29kZW1vYXBwMi5jb20vY2Evcm9vdC1jYS5jZXIwOgYDVR0fBDMwMTAvoC2gK4Yp
aHR0cDovL3BraS5lc29kZW1vYXBwMi5jb20vY2Evcm9vdC1jYS5jcmwwFgYDVR0R
BA8wDYILaHR0cGJpbi5vcmcwDQYJKoZIhvcNAQELBQADggEBABq6yK1EjHcgpM7r
FAdShjHfGr/kSMLCENxNDdlrhS6tufO98/gXk7lHL79DcmswxWMqXNh6fxQFJ6om
7Zt6DmMA5E+eWILfTqVyIDzfp1A/zflUe+2y5A+CzcH/JZtbtX9rpHeOrG23hmMH
wA7kIUr2wTA86w/FlQguTis0E9LX/LWit5Z/bFHnJARjw7ngWGqt3OAvpBpFuod+
vmexchcNrr4IHLkj401EBfNI/gyNK1ySI40uMY+v63xwUzb2quMzw8xhkIv0R//+
+8YbziXKYejJqOOU74QRT7cOv9OHfz+8gJ2tda/plQYiw8OBSh9GtmlQeaY914XX
zQOUaU4=
-----END CERTIFICATE-----
